target datalayout = "e-m:e-p270:32:32-p271:32:32-p272:64:64-i64:64-i128:128-f80:128-n8:16:32:64-S128"
target triple = "x86_64-pc-linux-gnu"

%class.XStatMMUPause = type { double, double }

; Function Attrs: mustprogress nounwind uwtable
define linkonce_odr hidden noundef double @_Z4MIN2IdET_S0_S0_(double noundef %0, double noundef %1) #1 comdat {
  %3 = alloca double, align 8
  %4 = alloca double, align 8
  store double %0, ptr %3, align 8
  store double %1, ptr %4, align 8
  %5 = load double, ptr %3, align 8
  %6 = load double, ptr %4, align 8
  %7 = fcmp olt double %5, %6
  br i1 %7, label %8, label %10

8:                                                ; preds = %2
  %9 = load double, ptr %3, align 8
  br label %12

10:                                               ; preds = %2
  %11 = load double, ptr %4, align 8
  br label %12

12:                                               ; preds = %10, %8
  %13 = phi double [ %9, %8 ], [ %11, %10 ]
  ret double %13
}

; Function Attrs: mustprogress nounwind uwtable
define linkonce_odr hidden noundef double @_Z4MAX2IdET_S0_S0_(double noundef %0, double noundef %1) #1 comdat {
  %3 = alloca double, align 8
  %4 = alloca double, align 8
  store double %0, ptr %3, align 8
  store double %1, ptr %4, align 8
  %5 = load double, ptr %3, align 8
  %6 = load double, ptr %4, align 8
  %7 = fcmp ogt double %5, %6
  br i1 %7, label %8, label %10

8:                                                ; preds = %2
  %9 = load double, ptr %3, align 8
  br label %12

10:                                               ; preds = %2
  %11 = load double, ptr %4, align 8
  br label %12

12:                                               ; preds = %10, %8
  %13 = phi double [ %9, %8 ], [ %11, %10 ]
  ret double %13
}

; Function Attrs: mustprogress nounwind uwtable
define hidden noundef double @_ZNK13XStatMMUPause7overlapEdd(ptr noundef nonnull align 8 dereferenceable(16) %0, double noundef %1, double noundef %2) #1 align 2 {
  %4 = alloca double, align 8
  %5 = alloca ptr, align 8
  %6 = alloca double, align 8
  %7 = alloca double, align 8
  %8 = alloca double, align 8
  %9 = alloca double, align 8
  store ptr %0, ptr %5, align 8
  store double %1, ptr %6, align 8
  store double %2, ptr %7, align 8
  %10 = load ptr, ptr %5, align 8
  %11 = load double, ptr %6, align 8
  %12 = getelementptr inbounds %class.XStatMMUPause, ptr %10, i32 0, i32 0
  %13 = load double, ptr %12, align 8
  %14 = call noundef double @_Z4MAX2IdET_S0_S0_(double noundef %11, double noundef %13)
  store double %14, ptr %8, align 8
  %15 = load double, ptr %7, align 8
  %16 = getelementptr inbounds %class.XStatMMUPause, ptr %10, i32 0, i32 1
  %17 = load double, ptr %16, align 8
  %18 = call noundef double @_Z4MIN2IdET_S0_S0_(double noundef %15, double noundef %17)
  store double %18, ptr %9, align 8
  %19 = load double, ptr %9, align 8
  %20 = load double, ptr %8, align 8
  %21 = fcmp ogt double %19, %20
  br i1 %21, label %22, label %26

22:                                               ; preds = %3
  %23 = load double, ptr %9, align 8
  %24 = load double, ptr %8, align 8
  %25 = fsub double %23, %24
  store double %25, ptr %4, align 8
  br label %27

26:                                               ; preds = %3
  store double 0.000000e+00, ptr %4, align 8
  br label %27

27:                                               ; preds = %26, %22
  %28 = load double, ptr %4, align 8
  ret double %28
}