; Function Attrs: mustprogress nofree norecurse nosync nounwind willreturn memory(argmem: read) uwtable
define hidden noundef double @_ZNK13XStatMMUPause7overlapEdd(ptr nocapture noundef nonnull readonly align 8 dereferenceable(16) %0, double noundef %1, double noundef %2) local_unnamed_addr #1 align 2 {
  %4 = load double, ptr %0, align 8
  %5 = fcmp olt double %4, %1
  %6 = select i1 %5, double %1, double %4
  %7 = getelementptr inbounds i8, ptr %0, i64 8
  %8 = load double, ptr %7, align 8
  %9 = fcmp ogt double %8, %2
  %10 = select i1 %9, double %2, double %8
  %11 = fcmp ogt double %10, %6
  %12 = fsub double %10, %6
  %.0 = select i1 %11, double %12, double 0.000000e+00
  ret double %.0
}